; Function Attrs: nounwind uwtable
define ptr @l___private_Init_Data_List_ToArray_0__Array_erase_match__1_splitter___rarg(ptr noundef %0, ptr noundef %1, ptr noundef %2) local_unnamed_addr #0 {
  %4 = ptrtoint ptr %0 to i64
  %5 = and i64 %4, 1
  %.not.i15 = icmp eq i64 %5, 0
  br i1 %.not.i15, label %9, label %6

6:                                                ; preds = %3
  %7 = lshr i64 %4, 1
  %8 = trunc i64 %7 to i32
  br label %lean_obj_tag.exit

9:                                                ; preds = %3
  %10 = getelementptr i8, ptr %0, i64 4
  %.val.i = load i32, ptr %10, align 4
  %11 = lshr i32 %.val.i, 24
  br label %lean_obj_tag.exit

lean_obj_tag.exit:                                ; preds = %6, %9
  %.0.i = phi i32 [ %8, %6 ], [ %11, %9 ]
  %12 = icmp eq i32 %.0.i, 0
  br i1 %12, label %13, label %31

13:                                               ; preds = %lean_obj_tag.exit
  %14 = ptrtoint ptr %2 to i64
  %15 = and i64 %14, 1
  %.not22 = icmp eq i64 %15, 0
  br i1 %.not22, label %16, label %lean_dec.exit11

16:                                               ; preds = %13
  %17 = load i32, ptr %2, align 4, !tbaa !5
  %18 = icmp sgt i32 %17, 1
  br i1 %18, label %19, label %21, !prof !10

19:                                               ; preds = %16
  %20 = add nsw i32 %17, -1
  store i32 %20, ptr %2, align 4, !tbaa !5
  br label %lean_dec.exit11

21:                                               ; preds = %16
  %.not.i = icmp eq i32 %17, 0
  br i1 %.not.i, label %lean_dec.exit11, label %22

22:                                               ; preds = %21
  tail call void @lean_dec_ref_cold(ptr noundef nonnull %2) #4
  br label %lean_dec.exit11

lean_dec.exit11:                                  ; preds = %22, %21, %19, %13
  %23 = ptrtoint ptr %1 to i64
  %24 = and i64 %23, 1
  %.not23 = icmp eq i64 %24, 0
  br i1 %.not23, label %25, label %lean_inc.exit12

25:                                               ; preds = %lean_dec.exit11
  %.val.i16 = load i32, ptr %1, align 4, !tbaa !5
  %26 = icmp sgt i32 %.val.i16, 0
  br i1 %26, label %27, label %29, !prof !10

27:                                               ; preds = %25
  %28 = add nuw i32 %.val.i16, 1
  store i32 %28, ptr %1, align 4, !tbaa !5
  br label %lean_inc.exit12

29:                                               ; preds = %25
  %.not.i17 = icmp eq i32 %.val.i16, 0
  br i1 %.not.i17, label %lean_inc.exit12, label %30

30:                                               ; preds = %29
  tail call void @lean_inc_ref_cold(ptr noundef nonnull %1) #4
  br label %lean_inc.exit12

31:                                               ; preds = %lean_obj_tag.exit
  %32 = getelementptr i8, ptr %0, i64 8
  %.val = load ptr, ptr %32, align 8, !tbaa !11
  %33 = ptrtoint ptr %.val to i64
  %34 = and i64 %33, 1
  %.not = icmp eq i64 %34, 0
  br i1 %.not, label %35, label %lean_inc.exit

35:                                               ; preds = %31
  %.val.i18 = load i32, ptr %.val, align 4, !tbaa !5
  %36 = icmp sgt i32 %.val.i18, 0
  br i1 %36, label %37, label %39, !prof !10

37:                                               ; preds = %35
  %38 = add nuw i32 %.val.i18, 1
  store i32 %38, ptr %.val, align 4, !tbaa !5
  br label %lean_inc.exit

39:                                               ; preds = %35
  %.not.i19 = icmp eq i32 %.val.i18, 0
  br i1 %.not.i19, label %lean_inc.exit, label %40

40:                                               ; preds = %39
  tail call void @lean_inc_ref_cold(ptr noundef nonnull %.val) #4
  br label %lean_inc.exit

lean_inc.exit:                                    ; preds = %40, %39, %37, %31
  br i1 %.not.i15, label %41, label %lean_dec.exit

41:                                               ; preds = %lean_inc.exit
  %42 = load i32, ptr %0, align 4, !tbaa !5
  %43 = icmp sgt i32 %42, 1
  br i1 %43, label %44, label %46, !prof !10

44:                                               ; preds = %41
  %45 = add nsw i32 %42, -1
  store i32 %45, ptr %0, align 4, !tbaa !5
  br label %lean_dec.exit

46:                                               ; preds = %41
  %.not.i13 = icmp eq i32 %42, 0
  br i1 %.not.i13, label %lean_dec.exit, label %47

47:                                               ; preds = %46
  tail call void @lean_dec_ref_cold(ptr noundef nonnull %0) #4
  br label %lean_dec.exit

lean_dec.exit:                                    ; preds = %47, %46, %44, %lean_inc.exit
  %48 = tail call ptr @lean_apply_1(ptr noundef %2, ptr noundef %.val) #4
  br label %lean_inc.exit12

lean_inc.exit12:                                  ; preds = %lean_dec.exit11, %27, %29, %30, %lean_dec.exit
  %.0 = phi ptr [ %48, %lean_dec.exit ], [ %1, %30 ], [ %1, %29 ], [ %1, %27 ], [ %1, %lean_dec.exit11 ]
  ret ptr %.0
}